; ModuleID = '23/876.c'
source_filename = "23/876.c"
target datalayout = "e-m:e-p270:32:32-p271:32:32-p272:64:64-i64:64-f80:128-n8:16:32:64-S128"
target triple = "x86_64-pc-linux-gnu"

@.str = private unnamed_addr constant [3 x i8] c"%s\00", align 1
@.str.1 = private unnamed_addr constant [4 x i8] c"%s \00", align 1

; Function Attrs: noinline nounwind uwtable
define dso_local void @main() #0 {
  %1 = alloca [100 x i8*], align 16
  %2 = alloca i8, align 1
  %3 = alloca i32, align 4
  store i8 10, i8* %2, align 1
  store i32 0, i32* %3, align 4
  br label %4

4:                                                ; preds = %21, %0
  %5 = call noalias i8* @malloc(i64 100) #3
  %6 = load i32, i32* %3, align 4
  %7 = sext i32 %6 to i64
  %8 = getelementptr inbounds [100 x i8*], [100 x i8*]* %1, i64 0, i64 %7
  store i8* %5, i8** %8, align 8
  %9 = load i32, i32* %3, align 4
  %10 = sext i32 %9 to i64
  %11 = getelementptr inbounds [100 x i8*], [100 x i8*]* %1, i64 0, i64 %10
  %12 = load i8*, i8** %11, align 8
  %13 = call i32 (i8*, ...) @__isoc99_scanf(i8* getelementptr inbounds ([3 x i8], [3 x i8]* @.str, i64 0, i64 0), i8* %12)
  %14 = load i32, i32* %3, align 4
  %15 = add nsw i32 %14, 1
  store i32 %15, i32* %3, align 4
  %16 = load i8, i8* %2, align 1
  %17 = sext i8 %16 to i32
  %18 = call i32 @getchar()
  %19 = icmp eq i32 %17, %18
  br i1 %19, label %20, label %21

20:                                               ; preds = %4
  br label %22

21:                                               ; preds = %4
  br label %4

22:                                               ; preds = %20
  %23 = load i32, i32* %3, align 4
  %24 = sub nsw i32 %23, 1
  store i32 %24, i32* %3, align 4
  br label %25

25:                                               ; preds = %44, %22
  %26 = load i32, i32* %3, align 4
  %27 = icmp sge i32 %26, 0
  br i1 %27, label %28, label %47

28:                                               ; preds = %25
  %29 = load i32, i32* %3, align 4
  %30 = icmp ne i32 %29, 0
  br i1 %30, label %31, label %37

31:                                               ; preds = %28
  %32 = load i32, i32* %3, align 4
  %33 = sext i32 %32 to i64
  %34 = getelementptr inbounds [100 x i8*], [100 x i8*]* %1, i64 0, i64 %33
  %35 = load i8*, i8** %34, align 8
  %36 = call i32 (i8*, ...) @printf(i8* getelementptr inbounds ([4 x i8], [4 x i8]* @.str.1, i64 0, i64 0), i8* %35)
  br label %43

37:                                               ; preds = %28
  %38 = load i32, i32* %3, align 4
  %39 = sext i32 %38 to i64
  %40 = getelementptr inbounds [100 x i8*], [100 x i8*]* %1, i64 0, i64 %39
  %41 = load i8*, i8** %40, align 8
  %42 = call i32 (i8*, ...) @printf(i8* getelementptr inbounds ([3 x i8], [3 x i8]* @.str, i64 0, i64 0), i8* %41)
  br label %43

43:                                               ; preds = %37, %31
  br label %44

44:                                               ; preds = %43
  %45 = load i32, i32* %3, align 4
  %46 = add nsw i32 %45, -1
  store i32 %46, i32* %3, align 4
  br label %25

47:                                               ; preds = %25
  ret void
}

; Function Attrs: nounwind
declare dso_local noalias i8* @malloc(i64) #1

declare dso_local i32 @__isoc99_scanf(i8*, ...) #2

declare dso_local i32 @getchar() #2

declare dso_local i32 @printf(i8*, ...) #2


!llvm.module.flags = !{!0}
!llvm.ident = !{!1}

!0 = !{i32 1, !"wchar_size", i32 4}
!1 = !{!"clang version 10.0.0-4ubuntu1 "}
